; ModuleID = '39/2074.c'
source_filename = "39/2074.c"
target datalayout = "e-m:e-p270:32:32-p271:32:32-p272:64:64-i64:64-f80:128-n8:16:32:64-S128"
target triple = "x86_64-pc-linux-gnu"

%struct.stu = type { [21 x i8], i32, i32, [21 x i8], [21 x i8], i32, i32 }

@.str = private unnamed_addr constant [3 x i8] c"%d\00", align 1
@.str.1 = private unnamed_addr constant [3 x i8] c"%s\00", align 1
@.str.2 = private unnamed_addr constant [4 x i8] c"%s\0A\00", align 1
@.str.3 = private unnamed_addr constant [4 x i8] c"%d\0A\00", align 1

; Function Attrs: noinline nounwind uwtable
define dso_local i32 @main() #0 {
  %1 = alloca i32, align 4
  %2 = alloca [101 x %struct.stu], align 16
  %3 = alloca i32, align 4
  %4 = alloca i32, align 4
  %5 = alloca i32, align 4
  %6 = alloca i32, align 4
  store i32 0, i32* %1, align 4
  %7 = call i32 (i8*, ...) @__isoc99_scanf(i8* getelementptr inbounds ([3 x i8], [3 x i8]* @.str, i64 0, i64 0), i32* %4)
  store i32 0, i32* %3, align 4
  br label %8

8:                                                ; preds = %149, %0
  %9 = load i32, i32* %3, align 4
  %10 = load i32, i32* %4, align 4
  %11 = icmp slt i32 %9, %10
  br i1 %11, label %12, label %152

12:                                               ; preds = %8
  %13 = load i32, i32* %3, align 4
  %14 = sext i32 %13 to i64
  %15 = getelementptr inbounds [101 x %struct.stu], [101 x %struct.stu]* %2, i64 0, i64 %14
  %16 = getelementptr inbounds %struct.stu, %struct.stu* %15, i32 0, i32 0
  %17 = call i32 (i8*, ...) @__isoc99_scanf(i8* getelementptr inbounds ([3 x i8], [3 x i8]* @.str.1, i64 0, i64 0), [21 x i8]* %16)
  %18 = load i32, i32* %3, align 4
  %19 = sext i32 %18 to i64
  %20 = getelementptr inbounds [101 x %struct.stu], [101 x %struct.stu]* %2, i64 0, i64 %19
  %21 = getelementptr inbounds %struct.stu, %struct.stu* %20, i32 0, i32 1
  %22 = call i32 (i8*, ...) @__isoc99_scanf(i8* getelementptr inbounds ([3 x i8], [3 x i8]* @.str, i64 0, i64 0), i32* %21)
  %23 = load i32, i32* %3, align 4
  %24 = sext i32 %23 to i64
  %25 = getelementptr inbounds [101 x %struct.stu], [101 x %struct.stu]* %2, i64 0, i64 %24
  %26 = getelementptr inbounds %struct.stu, %struct.stu* %25, i32 0, i32 2
  %27 = call i32 (i8*, ...) @__isoc99_scanf(i8* getelementptr inbounds ([3 x i8], [3 x i8]* @.str, i64 0, i64 0), i32* %26)
  %28 = load i32, i32* %3, align 4
  %29 = sext i32 %28 to i64
  %30 = getelementptr inbounds [101 x %struct.stu], [101 x %struct.stu]* %2, i64 0, i64 %29
  %31 = getelementptr inbounds %struct.stu, %struct.stu* %30, i32 0, i32 3
  %32 = call i32 (i8*, ...) @__isoc99_scanf(i8* getelementptr inbounds ([3 x i8], [3 x i8]* @.str.1, i64 0, i64 0), [21 x i8]* %31)
  %33 = load i32, i32* %3, align 4
  %34 = sext i32 %33 to i64
  %35 = getelementptr inbounds [101 x %struct.stu], [101 x %struct.stu]* %2, i64 0, i64 %34
  %36 = getelementptr inbounds %struct.stu, %struct.stu* %35, i32 0, i32 4
  %37 = call i32 (i8*, ...) @__isoc99_scanf(i8* getelementptr inbounds ([3 x i8], [3 x i8]* @.str.1, i64 0, i64 0), [21 x i8]* %36)
  %38 = load i32, i32* %3, align 4
  %39 = sext i32 %38 to i64
  %40 = getelementptr inbounds [101 x %struct.stu], [101 x %struct.stu]* %2, i64 0, i64 %39
  %41 = getelementptr inbounds %struct.stu, %struct.stu* %40, i32 0, i32 5
  %42 = call i32 (i8*, ...) @__isoc99_scanf(i8* getelementptr inbounds ([3 x i8], [3 x i8]* @.str, i64 0, i64 0), i32* %41)
  %43 = load i32, i32* %3, align 4
  %44 = sext i32 %43 to i64
  %45 = getelementptr inbounds [101 x %struct.stu], [101 x %struct.stu]* %2, i64 0, i64 %44
  %46 = getelementptr inbounds %struct.stu, %struct.stu* %45, i32 0, i32 6
  store i32 0, i32* %46, align 4
  %47 = load i32, i32* %3, align 4
  %48 = sext i32 %47 to i64
  %49 = getelementptr inbounds [101 x %struct.stu], [101 x %struct.stu]* %2, i64 0, i64 %48
  %50 = getelementptr inbounds %struct.stu, %struct.stu* %49, i32 0, i32 1
  %51 = load i32, i32* %50, align 4
  %52 = icmp sgt i32 %51, 80
  br i1 %52, label %53, label %67

53:                                               ; preds = %12
  %54 = load i32, i32* %3, align 4
  %55 = sext i32 %54 to i64
  %56 = getelementptr inbounds [101 x %struct.stu], [101 x %struct.stu]* %2, i64 0, i64 %55
  %57 = getelementptr inbounds %struct.stu, %struct.stu* %56, i32 0, i32 5
  %58 = load i32, i32* %57, align 4
  %59 = icmp sgt i32 %58, 0
  br i1 %59, label %60, label %67

60:                                               ; preds = %53
  %61 = load i32, i32* %3, align 4
  %62 = sext i32 %61 to i64
  %63 = getelementptr inbounds [101 x %struct.stu], [101 x %struct.stu]* %2, i64 0, i64 %62
  %64 = getelementptr inbounds %struct.stu, %struct.stu* %63, i32 0, i32 6
  %65 = load i32, i32* %64, align 4
  %66 = add nsw i32 %65, 8000
  store i32 %66, i32* %64, align 4
  br label %67

67:                                               ; preds = %60, %53, %12
  %68 = load i32, i32* %3, align 4
  %69 = sext i32 %68 to i64
  %70 = getelementptr inbounds [101 x %struct.stu], [101 x %struct.stu]* %2, i64 0, i64 %69
  %71 = getelementptr inbounds %struct.stu, %struct.stu* %70, i32 0, i32 1
  %72 = load i32, i32* %71, align 4
  %73 = icmp sgt i32 %72, 85
  br i1 %73, label %74, label %88

74:                                               ; preds = %67
  %75 = load i32, i32* %3, align 4
  %76 = sext i32 %75 to i64
  %77 = getelementptr inbounds [101 x %struct.stu], [101 x %struct.stu]* %2, i64 0, i64 %76
  %78 = getelementptr inbounds %struct.stu, %struct.stu* %77, i32 0, i32 2
  %79 = load i32, i32* %78, align 4
  %80 = icmp sgt i32 %79, 80
  br i1 %80, label %81, label %88

81:                                               ; preds = %74
  %82 = load i32, i32* %3, align 4
  %83 = sext i32 %82 to i64
  %84 = getelementptr inbounds [101 x %struct.stu], [101 x %struct.stu]* %2, i64 0, i64 %83
  %85 = getelementptr inbounds %struct.stu, %struct.stu* %84, i32 0, i32 6
  %86 = load i32, i32* %85, align 4
  %87 = add nsw i32 %86, 4000
  store i32 %87, i32* %85, align 4
  br label %88

88:                                               ; preds = %81, %74, %67
  %89 = load i32, i32* %3, align 4
  %90 = sext i32 %89 to i64
  %91 = getelementptr inbounds [101 x %struct.stu], [101 x %struct.stu]* %2, i64 0, i64 %90
  %92 = getelementptr inbounds %struct.stu, %struct.stu* %91, i32 0, i32 1
  %93 = load i32, i32* %92, align 4
  %94 = icmp sgt i32 %93, 90
  br i1 %94, label %95, label %102

95:                                               ; preds = %88
  %96 = load i32, i32* %3, align 4
  %97 = sext i32 %96 to i64
  %98 = getelementptr inbounds [101 x %struct.stu], [101 x %struct.stu]* %2, i64 0, i64 %97
  %99 = getelementptr inbounds %struct.stu, %struct.stu* %98, i32 0, i32 6
  %100 = load i32, i32* %99, align 4
  %101 = add nsw i32 %100, 2000
  store i32 %101, i32* %99, align 4
  br label %102

102:                                              ; preds = %95, %88
  %103 = load i32, i32* %3, align 4
  %104 = sext i32 %103 to i64
  %105 = getelementptr inbounds [101 x %struct.stu], [101 x %struct.stu]* %2, i64 0, i64 %104
  %106 = getelementptr inbounds %struct.stu, %struct.stu* %105, i32 0, i32 1
  %107 = load i32, i32* %106, align 4
  %108 = icmp sgt i32 %107, 85
  br i1 %108, label %109, label %125

109:                                              ; preds = %102
  %110 = load i32, i32* %3, align 4
  %111 = sext i32 %110 to i64
  %112 = getelementptr inbounds [101 x %struct.stu], [101 x %struct.stu]* %2, i64 0, i64 %111
  %113 = getelementptr inbounds %struct.stu, %struct.stu* %112, i32 0, i32 4
  %114 = getelementptr inbounds [21 x i8], [21 x i8]* %113, i64 0, i64 0
  %115 = load i8, i8* %114, align 1
  %116 = sext i8 %115 to i32
  %117 = icmp eq i32 %116, 89
  br i1 %117, label %118, label %125

118:                                              ; preds = %109
  %119 = load i32, i32* %3, align 4
  %120 = sext i32 %119 to i64
  %121 = getelementptr inbounds [101 x %struct.stu], [101 x %struct.stu]* %2, i64 0, i64 %120
  %122 = getelementptr inbounds %struct.stu, %struct.stu* %121, i32 0, i32 6
  %123 = load i32, i32* %122, align 4
  %124 = add nsw i32 %123, 1000
  store i32 %124, i32* %122, align 4
  br label %125

125:                                              ; preds = %118, %109, %102
  %126 = load i32, i32* %3, align 4
  %127 = sext i32 %126 to i64
  %128 = getelementptr inbounds [101 x %struct.stu], [101 x %struct.stu]* %2, i64 0, i64 %127
  %129 = getelementptr inbounds %struct.stu, %struct.stu* %128, i32 0, i32 2
  %130 = load i32, i32* %129, align 4
  %131 = icmp sgt i32 %130, 80
  br i1 %131, label %132, label %148

132:                                              ; preds = %125
  %133 = load i32, i32* %3, align 4
  %134 = sext i32 %133 to i64
  %135 = getelementptr inbounds [101 x %struct.stu], [101 x %struct.stu]* %2, i64 0, i64 %134
  %136 = getelementptr inbounds %struct.stu, %struct.stu* %135, i32 0, i32 3
  %137 = getelementptr inbounds [21 x i8], [21 x i8]* %136, i64 0, i64 0
  %138 = load i8, i8* %137, align 4
  %139 = sext i8 %138 to i32
  %140 = icmp eq i32 %139, 89
  br i1 %140, label %141, label %148

141:                                              ; preds = %132
  %142 = load i32, i32* %3, align 4
  %143 = sext i32 %142 to i64
  %144 = getelementptr inbounds [101 x %struct.stu], [101 x %struct.stu]* %2, i64 0, i64 %143
  %145 = getelementptr inbounds %struct.stu, %struct.stu* %144, i32 0, i32 6
  %146 = load i32, i32* %145, align 4
  %147 = add nsw i32 %146, 850
  store i32 %147, i32* %145, align 4
  br label %148

148:                                              ; preds = %141, %132, %125
  br label %149

149:                                              ; preds = %148
  %150 = load i32, i32* %3, align 4
  %151 = add nsw i32 %150, 1
  store i32 %151, i32* %3, align 4
  br label %8

152:                                              ; preds = %8
  store i32 0, i32* %5, align 4
  store i32 0, i32* %6, align 4
  store i32 0, i32* %3, align 4
  br label %153

153:                                              ; preds = %179, %152
  %154 = load i32, i32* %3, align 4
  %155 = load i32, i32* %4, align 4
  %156 = icmp slt i32 %154, %155
  br i1 %156, label %157, label %182

157:                                              ; preds = %153
  %158 = load i32, i32* %3, align 4
  %159 = sext i32 %158 to i64
  %160 = getelementptr inbounds [101 x %struct.stu], [101 x %struct.stu]* %2, i64 0, i64 %159
  %161 = getelementptr inbounds %struct.stu, %struct.stu* %160, i32 0, i32 6
  %162 = load i32, i32* %161, align 4
  %163 = load i32, i32* %5, align 4
  %164 = sext i32 %163 to i64
  %165 = getelementptr inbounds [101 x %struct.stu], [101 x %struct.stu]* %2, i64 0, i64 %164
  %166 = getelementptr inbounds %struct.stu, %struct.stu* %165, i32 0, i32 6
  %167 = load i32, i32* %166, align 4
  %168 = icmp sgt i32 %162, %167
  br i1 %168, label %169, label %171

169:                                              ; preds = %157
  %170 = load i32, i32* %3, align 4
  store i32 %170, i32* %5, align 4
  br label %171

171:                                              ; preds = %169, %157
  %172 = load i32, i32* %6, align 4
  %173 = load i32, i32* %3, align 4
  %174 = sext i32 %173 to i64
  %175 = getelementptr inbounds [101 x %struct.stu], [101 x %struct.stu]* %2, i64 0, i64 %174
  %176 = getelementptr inbounds %struct.stu, %struct.stu* %175, i32 0, i32 6
  %177 = load i32, i32* %176, align 4
  %178 = add nsw i32 %172, %177
  store i32 %178, i32* %6, align 4
  br label %179

179:                                              ; preds = %171
  %180 = load i32, i32* %3, align 4
  %181 = add nsw i32 %180, 1
  store i32 %181, i32* %3, align 4
  br label %153

182:                                              ; preds = %153
  %183 = load i32, i32* %5, align 4
  %184 = sext i32 %183 to i64
  %185 = getelementptr inbounds [101 x %struct.stu], [101 x %struct.stu]* %2, i64 0, i64 %184
  %186 = getelementptr inbounds %struct.stu, %struct.stu* %185, i32 0, i32 0
  %187 = getelementptr inbounds [21 x i8], [21 x i8]* %186, i64 0, i64 0
  %188 = call i32 (i8*, ...) @printf(i8* getelementptr inbounds ([4 x i8], [4 x i8]* @.str.2, i64 0, i64 0), i8* %187)
  %189 = load i32, i32* %5, align 4
  %190 = sext i32 %189 to i64
  %191 = getelementptr inbounds [101 x %struct.stu], [101 x %struct.stu]* %2, i64 0, i64 %190
  %192 = getelementptr inbounds %struct.stu, %struct.stu* %191, i32 0, i32 6
  %193 = load i32, i32* %192, align 4
  %194 = call i32 (i8*, ...) @printf(i8* getelementptr inbounds ([4 x i8], [4 x i8]* @.str.3, i64 0, i64 0), i32 %193)
  %195 = load i32, i32* %6, align 4
  %196 = call i32 (i8*, ...) @printf(i8* getelementptr inbounds ([4 x i8], [4 x i8]* @.str.3, i64 0, i64 0), i32 %195)
  ret i32 0
}

declare dso_local i32 @__isoc99_scanf(i8*, ...) #1

declare dso_local i32 @printf(i8*, ...) #1


!llvm.module.flags = !{!0}
!llvm.ident = !{!1}

!0 = !{i32 1, !"wchar_size", i32 4}
!1 = !{!"clang version 10.0.0-4ubuntu1 "}
